; Function Attrs: mustprogress uwtable
define hidden void @_ZN4cvc58internal18StatisticsRegistryC2ERNS0_3EnvEb(ptr noundef nonnull align 8 dereferenceable(72) %this, ptr noundef nonnull align 1 %env, i1 noundef zeroext %registerPublic) unnamed_addr #3 align 2 personality ptr @__gxx_personality_v0 {
entry:
  tail call void @_ZN4cvc58internal6EnvObjC2ERNS0_3EnvE(ptr noundef nonnull align 8 dereferenceable(16) %this, ptr noundef nonnull align 1 %env)
  store ptr getelementptr inbounds ({ [4 x ptr] }, ptr @_ZTVN4cvc58internal18StatisticsRegistryE, i64 0, i32 0, i64 2), ptr %this, align 8
  %0 = getelementptr inbounds i8, ptr %this, i64 24
  store i32 0, ptr %0, align 8
  %_M_parent.i.i.i.i.i = getelementptr inbounds i8, ptr %this, i64 32
  store ptr null, ptr %_M_parent.i.i.i.i.i, align 8
  %_M_left.i.i.i.i.i = getelementptr inbounds i8, ptr %this, i64 40
  store ptr %0, ptr %_M_left.i.i.i.i.i, align 8
  %_M_right.i.i.i.i.i = getelementptr inbounds i8, ptr %this, i64 48
  store ptr %0, ptr %_M_right.i.i.i.i.i, align 8
  %_M_node_count.i.i.i.i.i = getelementptr inbounds i8, ptr %this, i64 56
  tail call void @llvm.memset.p0.i64(ptr noundef nonnull align 8 dereferenceable(16) %_M_node_count.i.i.i.i.i, i8 0, i64 16, i1 false)
  br i1 %registerPublic, label %if.then, label %if.end

if.then:                                          ; preds = %entry
  invoke void @_ZN4cvc58internal24registerPublicStatisticsERNS0_18StatisticsRegistryE(ptr noundef nonnull align 8 dereferenceable(72) %this)
          to label %if.end unwind label %lpad

lpad:                                             ; preds = %if.then
  %1 = landingpad { ptr, i32 }
          cleanup
  %d_lastSnapshot = getelementptr inbounds i8, ptr %this, i64 64
  %d_stats = getelementptr inbounds i8, ptr %this, i64 16
  tail call void @_ZNSt10unique_ptrISt3mapINSt7__cxx1112basic_stringIcSt11char_traitsIcESaIcEEESt7variantIJldS6_S0_IS6_mSt4lessIS6_ESaISt4pairIKS6_mEEEEES9_SaISA_ISB_SF_EEESt14default_deleteISI_EED2Ev(ptr noundef nonnull align 8 dereferenceable(8) %d_lastSnapshot) #16
  tail call void @_ZNSt3mapINSt7__cxx1112basic_stringIcSt11char_traitsIcESaIcEEESt10unique_ptrIN4cvc58internal18StatisticBaseValueESt14default_deleteIS9_EESt4lessIS5_ESaISt4pairIKS5_SC_EEED2Ev(ptr noundef nonnull align 8 dereferenceable(48) %d_stats) #16
  resume { ptr, i32 } %1

if.end:                                           ; preds = %if.then, %entry
  ret void
}